; ModuleID = '15/595.c'
source_filename = "15/595.c"
target datalayout = "e-m:e-p270:32:32-p271:32:32-p272:64:64-i64:64-f80:128-n8:16:32:64-S128"
target triple = "x86_64-pc-linux-gnu"

@.str = private unnamed_addr constant [3 x i8] c"%d\00", align 1
@.str.1 = private unnamed_addr constant [4 x i8] c"%d\0A\00", align 1

; Function Attrs: noinline nounwind uwtable
define dso_local void @main(i32 %0, i8** %1) #0 {
  %3 = alloca i32, align 4
  %4 = alloca i8**, align 8
  %5 = alloca [1000 x [1000 x i32]], align 16
  %6 = alloca i32, align 4
  %7 = alloca i32, align 4
  %8 = alloca i32, align 4
  %9 = alloca i32, align 4
  %10 = alloca i32, align 4
  %11 = alloca i32, align 4
  %12 = alloca i32, align 4
  %13 = alloca i32, align 4
  store i32 %0, i32* %3, align 4
  store i8** %1, i8*** %4, align 8
  %14 = call i32 (i8*, ...) @__isoc99_scanf(i8* getelementptr inbounds ([3 x i8], [3 x i8]* @.str, i64 0, i64 0), i32* %10)
  store i32 0, i32* %11, align 4
  br label %15

15:                                               ; preds = %36, %2
  %16 = load i32, i32* %11, align 4
  %17 = load i32, i32* %10, align 4
  %18 = icmp slt i32 %16, %17
  br i1 %18, label %19, label %39

19:                                               ; preds = %15
  store i32 0, i32* %12, align 4
  br label %20

20:                                               ; preds = %32, %19
  %21 = load i32, i32* %12, align 4
  %22 = load i32, i32* %10, align 4
  %23 = icmp slt i32 %21, %22
  br i1 %23, label %24, label %35

24:                                               ; preds = %20
  %25 = load i32, i32* %11, align 4
  %26 = sext i32 %25 to i64
  %27 = getelementptr inbounds [1000 x [1000 x i32]], [1000 x [1000 x i32]]* %5, i64 0, i64 %26
  %28 = load i32, i32* %12, align 4
  %29 = sext i32 %28 to i64
  %30 = getelementptr inbounds [1000 x i32], [1000 x i32]* %27, i64 0, i64 %29
  %31 = call i32 (i8*, ...) @__isoc99_scanf(i8* getelementptr inbounds ([3 x i8], [3 x i8]* @.str, i64 0, i64 0), i32* %30)
  br label %32

32:                                               ; preds = %24
  %33 = load i32, i32* %12, align 4
  %34 = add nsw i32 %33, 1
  store i32 %34, i32* %12, align 4
  br label %20

35:                                               ; preds = %20
  br label %36

36:                                               ; preds = %35
  %37 = load i32, i32* %11, align 4
  %38 = add nsw i32 %37, 1
  store i32 %38, i32* %11, align 4
  br label %15

39:                                               ; preds = %15
  store i32 0, i32* %11, align 4
  br label %40

40:                                               ; preds = %76, %39
  %41 = load i32, i32* %11, align 4
  %42 = load i32, i32* %10, align 4
  %43 = icmp slt i32 %41, %42
  br i1 %43, label %44, label %79

44:                                               ; preds = %40
  store i32 0, i32* %12, align 4
  br label %45

45:                                               ; preds = %62, %44
  %46 = load i32, i32* %12, align 4
  %47 = load i32, i32* %10, align 4
  %48 = icmp slt i32 %46, %47
  br i1 %48, label %49, label %65

49:                                               ; preds = %45
  %50 = load i32, i32* %11, align 4
  %51 = sext i32 %50 to i64
  %52 = getelementptr inbounds [1000 x [1000 x i32]], [1000 x [1000 x i32]]* %5, i64 0, i64 %51
  %53 = load i32, i32* %12, align 4
  %54 = sext i32 %53 to i64
  %55 = getelementptr inbounds [1000 x i32], [1000 x i32]* %52, i64 0, i64 %54
  %56 = load i32, i32* %55, align 4
  %57 = icmp eq i32 %56, 0
  br i1 %57, label %58, label %61

58:                                               ; preds = %49
  %59 = load i32, i32* %11, align 4
  store i32 %59, i32* %6, align 4
  %60 = load i32, i32* %12, align 4
  store i32 %60, i32* %7, align 4
  br label %65

61:                                               ; preds = %49
  br label %62

62:                                               ; preds = %61
  %63 = load i32, i32* %12, align 4
  %64 = add nsw i32 %63, 1
  store i32 %64, i32* %12, align 4
  br label %45

65:                                               ; preds = %58, %45
  %66 = load i32, i32* %6, align 4
  %67 = sext i32 %66 to i64
  %68 = getelementptr inbounds [1000 x [1000 x i32]], [1000 x [1000 x i32]]* %5, i64 0, i64 %67
  %69 = load i32, i32* %7, align 4
  %70 = sext i32 %69 to i64
  %71 = getelementptr inbounds [1000 x i32], [1000 x i32]* %68, i64 0, i64 %70
  %72 = load i32, i32* %71, align 4
  %73 = icmp eq i32 %72, 0
  br i1 %73, label %74, label %75

74:                                               ; preds = %65
  br label %79

75:                                               ; preds = %65
  br label %76

76:                                               ; preds = %75
  %77 = load i32, i32* %11, align 4
  %78 = add nsw i32 %77, 1
  store i32 %78, i32* %11, align 4
  br label %40

79:                                               ; preds = %74, %40
  %80 = load i32, i32* %10, align 4
  %81 = sub nsw i32 %80, 1
  store i32 %81, i32* %11, align 4
  br label %82

82:                                               ; preds = %118, %79
  %83 = load i32, i32* %11, align 4
  %84 = icmp sge i32 %83, 0
  br i1 %84, label %85, label %121

85:                                               ; preds = %82
  %86 = load i32, i32* %10, align 4
  %87 = sub nsw i32 %86, 1
  store i32 %87, i32* %12, align 4
  br label %88

88:                                               ; preds = %104, %85
  %89 = load i32, i32* %12, align 4
  %90 = icmp sge i32 %89, 0
  br i1 %90, label %91, label %107

91:                                               ; preds = %88
  %92 = load i32, i32* %11, align 4
  %93 = sext i32 %92 to i64
  %94 = getelementptr inbounds [1000 x [1000 x i32]], [1000 x [1000 x i32]]* %5, i64 0, i64 %93
  %95 = load i32, i32* %12, align 4
  %96 = sext i32 %95 to i64
  %97 = getelementptr inbounds [1000 x i32], [1000 x i32]* %94, i64 0, i64 %96
  %98 = load i32, i32* %97, align 4
  %99 = icmp eq i32 %98, 0
  br i1 %99, label %100, label %103

100:                                              ; preds = %91
  %101 = load i32, i32* %11, align 4
  store i32 %101, i32* %8, align 4
  %102 = load i32, i32* %12, align 4
  store i32 %102, i32* %9, align 4
  br label %107

103:                                              ; preds = %91
  br label %104

104:                                              ; preds = %103
  %105 = load i32, i32* %12, align 4
  %106 = add nsw i32 %105, -1
  store i32 %106, i32* %12, align 4
  br label %88

107:                                              ; preds = %100, %88
  %108 = load i32, i32* %8, align 4
  %109 = sext i32 %108 to i64
  %110 = getelementptr inbounds [1000 x [1000 x i32]], [1000 x [1000 x i32]]* %5, i64 0, i64 %109
  %111 = load i32, i32* %9, align 4
  %112 = sext i32 %111 to i64
  %113 = getelementptr inbounds [1000 x i32], [1000 x i32]* %110, i64 0, i64 %112
  %114 = load i32, i32* %113, align 4
  %115 = icmp eq i32 %114, 0
  br i1 %115, label %116, label %117

116:                                              ; preds = %107
  br label %121

117:                                              ; preds = %107
  br label %118

118:                                              ; preds = %117
  %119 = load i32, i32* %11, align 4
  %120 = add nsw i32 %119, -1
  store i32 %120, i32* %11, align 4
  br label %82

121:                                              ; preds = %116, %82
  %122 = load i32, i32* %8, align 4
  %123 = load i32, i32* %6, align 4
  %124 = sub nsw i32 %122, %123
  %125 = sub nsw i32 %124, 1
  %126 = load i32, i32* %9, align 4
  %127 = load i32, i32* %7, align 4
  %128 = sub nsw i32 %126, %127
  %129 = sub nsw i32 %128, 1
  %130 = mul nsw i32 %125, %129
  store i32 %130, i32* %13, align 4
  %131 = load i32, i32* %13, align 4
  %132 = call i32 (i8*, ...) @printf(i8* getelementptr inbounds ([4 x i8], [4 x i8]* @.str.1, i64 0, i64 0), i32 %131)
  ret void
}

declare dso_local i32 @__isoc99_scanf(i8*, ...) #1

declare dso_local i32 @printf(i8*, ...) #1


!llvm.module.flags = !{!0}
!llvm.ident = !{!1}

!0 = !{i32 1, !"wchar_size", i32 4}
!1 = !{!"clang version 10.0.0-4ubuntu1 "}
